; Function Attrs: mustprogress uwtable
define noundef zeroext i1 @_ZN18OpenImageIO_v2_6_010ImageInput6ioreadEPvmm(ptr noundef nonnull align 8 dereferenceable(184) %this, ptr noundef %buf, i64 noundef %itemsize, i64 noundef %nitems) local_unnamed_addr #5 align 2 personality ptr @__gxx_personality_v0 {
entry:
  %size = alloca i64, align 8
  %n = alloca i64, align 8
  %ref.tmp = alloca ptr, align 8
  %ref.tmp15 = alloca i64, align 8
  %ref.tmp19 = alloca %"class.std::__cxx11::basic_string", align 8
  %add.ptr.i.i.i.i.i.i = getelementptr inbounds i8, ptr %this, i64 176
  %0 = load ptr, ptr %add.ptr.i.i.i.i.i.i, align 8
  %m_io2 = getelementptr inbounds i8, ptr %0, i64 56
  %mul = mul i64 %nitems, %itemsize
  store i64 %mul, ptr %size, align 8
  %1 = load ptr, ptr %m_io2, align 8
  %vtable = load ptr, ptr %1, align 8
  %vfn = getelementptr inbounds i8, ptr %vtable, i64 56
  %2 = load ptr, ptr %vfn, align 8
  %call3 = tail call noundef i64 %2(ptr noundef nonnull align 8 dereferenceable(88) %1, ptr noundef %buf, i64 noundef %mul)
  store i64 %call3, ptr %n, align 8
  %cmp.not = icmp eq i64 %call3, %mul
  br i1 %cmp.not, label %if.end20, label %if.then

if.then:                                          ; preds = %entry
  %3 = load ptr, ptr %m_io2, align 8
  %vtable4 = load ptr, ptr %3, align 8
  %vfn5 = getelementptr inbounds i8, ptr %vtable4, i64 40
  %4 = load ptr, ptr %vfn5, align 8
  %call6 = tail call noundef i64 %4(ptr noundef nonnull align 8 dereferenceable(88) %3)
  %5 = load ptr, ptr %m_io2, align 8
  %vtable7 = load ptr, ptr %5, align 8
  %vfn8 = getelementptr inbounds i8, ptr %vtable7, i64 88
  %6 = load ptr, ptr %vfn8, align 8
  %call9 = tail call noundef i64 %6(ptr noundef nonnull align 8 dereferenceable(88) %5)
  %cmp10.not = icmp ult i64 %call6, %call9
  br i1 %cmp10.not, label %if.else, label %if.then11

if.then11:                                        ; preds = %if.then
  %vtable12 = load ptr, ptr %this, align 8
  %vfn13 = getelementptr inbounds i8, ptr %vtable12, i64 16
  %7 = load ptr, ptr %vfn13, align 8
  %call14 = tail call noundef ptr %7(ptr noundef nonnull align 8 dereferenceable(184) %this)
  store ptr %call14, ptr %ref.tmp, align 8
  call void @_ZNK18OpenImageIO_v2_6_010ImageInput8errorfmtIJPKcEEEvS3_DpRKT_(ptr noundef nonnull align 8 dereferenceable(184) %this, ptr noundef nonnull @.str.11, ptr noundef nonnull align 8 dereferenceable(8) %ref.tmp)
  br label %if.end20

if.else:                                          ; preds = %if.then
  %8 = load ptr, ptr %m_io2, align 8
  %vtable16 = load ptr, ptr %8, align 8
  %vfn17 = getelementptr inbounds i8, ptr %vtable16, i64 40
  %9 = load ptr, ptr %vfn17, align 8
  %call18 = tail call noundef i64 %9(ptr noundef nonnull align 8 dereferenceable(88) %8)
  %sub = sub i64 %call18, %call3
  store i64 %sub, ptr %ref.tmp15, align 8
  %10 = load ptr, ptr %m_io2, align 8
  call void @_ZNK18OpenImageIO_v2_6_010Filesystem7IOProxy5errorB5cxx11Ev(ptr nonnull sret(%"class.std::__cxx11::basic_string") align 8 %ref.tmp19, ptr noundef nonnull align 8 dereferenceable(88) %10)
  invoke void @_ZNK18OpenImageIO_v2_6_010ImageInput8errorfmtIJmmmNSt7__cxx1112basic_stringIcSt11char_traitsIcESaIcEEEEEEvPKcDpRKT_(ptr noundef nonnull align 8 dereferenceable(184) %this, ptr noundef nonnull @.str.12, ptr noundef nonnull align 8 dereferenceable(8) %ref.tmp15, ptr noundef nonnull align 8 dereferenceable(8) %n, ptr noundef nonnull align 8 dereferenceable(8) %size, ptr noundef nonnull align 8 dereferenceable(32) %ref.tmp19)
          to label %invoke.cont unwind label %lpad

invoke.cont:                                      ; preds = %if.else
  call void @_ZNSt7__cxx1112basic_stringIcSt11char_traitsIcESaIcEED1Ev(ptr noundef nonnull align 8 dereferenceable(32) %ref.tmp19) #26
  %.pre = load i64, ptr %n, align 8
  %.pre5 = load i64, ptr %size, align 8
  br label %if.end20

lpad:                                             ; preds = %if.else
  %11 = landingpad { ptr, i32 }
          cleanup
  call void @_ZNSt7__cxx1112basic_stringIcSt11char_traitsIcESaIcEED1Ev(ptr noundef nonnull align 8 dereferenceable(32) %ref.tmp19) #26
  resume { ptr, i32 } %11

if.end20:                                         ; preds = %if.then11, %invoke.cont, %entry
  %12 = phi i64 [ %mul, %if.then11 ], [ %.pre5, %invoke.cont ], [ %mul, %entry ]
  %13 = phi i64 [ %call3, %if.then11 ], [ %.pre, %invoke.cont ], [ %mul, %entry ]
  %cmp21 = icmp eq i64 %13, %12
  ret i1 %cmp21
}